target datalayout = "e-m:e-p270:32:32-p271:32:32-p272:64:64-i64:64-i128:128-f80:128-n8:16:32:64-S128"
target triple = "x86_64-pc-linux-gnu"

%"struct.std::_Bvector_base" = type { %"struct.std::_Bvector_base<std::allocator<bool>>::_Bvector_impl" }
%"struct.std::_Bvector_base<std::allocator<bool>>::_Bvector_impl" = type { %"struct.std::_Bvector_base<std::allocator<bool>>::_Bvector_impl_data" }
%"struct.std::_Bvector_base<std::allocator<bool>>::_Bvector_impl_data" = type { %"struct.std::_Bit_iterator", %"struct.std::_Bit_iterator", ptr }
%"struct.std::_Bit_iterator" = type { %"struct.std::_Bit_iterator_base.base", [4 x i8] }
%"struct.std::_Bit_iterator_base.base" = type <{ ptr, i32 }>
%"struct.std::_Bit_const_iterator" = type { %"struct.std::_Bit_iterator_base.base", [4 x i8] }
%"struct.std::_Bit_reference" = type { ptr, i64 }
%"struct.std::_Bit_iterator_base" = type <{ ptr, i32, [4 x i8] }>

; Function Attrs: mustprogress nounwind uwtable
define linkonce_odr dso_local void @_ZNSt18_Bit_iterator_base7_M_incrEl(ptr noundef nonnull align 8 dereferenceable(12) %0, i64 noundef %1) #4 comdat align 2 {
  %3 = alloca ptr, align 8
  %4 = alloca i64, align 8
  %5 = alloca i64, align 8
  store ptr %0, ptr %3, align 8
  store i64 %1, ptr %4, align 8
  %6 = load ptr, ptr %3, align 8
  %7 = load i64, ptr %4, align 8
  %8 = getelementptr inbounds %"struct.std::_Bit_iterator_base", ptr %6, i32 0, i32 1
  %9 = load i32, ptr %8, align 8
  %10 = zext i32 %9 to i64
  %11 = add nsw i64 %7, %10
  store i64 %11, ptr %5, align 8
  %12 = load i64, ptr %5, align 8
  %13 = sdiv i64 %12, 64
  %14 = getelementptr inbounds %"struct.std::_Bit_iterator_base", ptr %6, i32 0, i32 0
  %15 = load ptr, ptr %14, align 8
  %16 = getelementptr inbounds i64, ptr %15, i64 %13
  store ptr %16, ptr %14, align 8
  %17 = load i64, ptr %5, align 8
  %18 = srem i64 %17, 64
  store i64 %18, ptr %5, align 8
  %19 = load i64, ptr %5, align 8
  %20 = icmp slt i64 %19, 0
  br i1 %20, label %21, label %27

21:                                               ; preds = %2
  %22 = load i64, ptr %5, align 8
  %23 = add nsw i64 %22, 64
  store i64 %23, ptr %5, align 8
  %24 = getelementptr inbounds %"struct.std::_Bit_iterator_base", ptr %6, i32 0, i32 0
  %25 = load ptr, ptr %24, align 8
  %26 = getelementptr inbounds i64, ptr %25, i32 -1
  store ptr %26, ptr %24, align 8
  br label %27

27:                                               ; preds = %21, %2
  %28 = load i64, ptr %5, align 8
  %29 = trunc i64 %28 to i32
  %30 = getelementptr inbounds %"struct.std::_Bit_iterator_base", ptr %6, i32 0, i32 1
  store i32 %29, ptr %30, align 8
  ret void
}

; Function Attrs: mustprogress nounwind uwtable
define linkonce_odr dso_local void @_ZNSt14_Bit_referenceC2EPmm(ptr noundef nonnull align 8 dereferenceable(16) %0, ptr noundef %1, i64 noundef %2) unnamed_addr #4 comdat align 2 {
  %4 = alloca ptr, align 8
  %5 = alloca ptr, align 8
  %6 = alloca i64, align 8
  store ptr %0, ptr %4, align 8
  store ptr %1, ptr %5, align 8
  store i64 %2, ptr %6, align 8
  %7 = load ptr, ptr %4, align 8
  %8 = getelementptr inbounds %"struct.std::_Bit_reference", ptr %7, i32 0, i32 0
  %9 = load ptr, ptr %5, align 8
  store ptr %9, ptr %8, align 8
  %10 = getelementptr inbounds %"struct.std::_Bit_reference", ptr %7, i32 0, i32 1
  %11 = load i64, ptr %6, align 8
  store i64 %11, ptr %10, align 8
  ret void
}

; Function Attrs: mustprogress nounwind uwtable
define linkonce_odr dso_local noundef nonnull align 8 dereferenceable(12) ptr @_ZNSt13_Bit_iteratorpLEl(ptr noundef nonnull align 8 dereferenceable(12) %0, i64 noundef %1) #4 comdat align 2 {
  %3 = alloca ptr, align 8
  %4 = alloca i64, align 8
  store ptr %0, ptr %3, align 8
  store i64 %1, ptr %4, align 8
  %5 = load ptr, ptr %3, align 8
  %6 = load i64, ptr %4, align 8
  call void @_ZNSt18_Bit_iterator_base7_M_incrEl(ptr noundef nonnull align 8 dereferenceable(12) %5, i64 noundef %6)
  ret ptr %5
}

; Function Attrs: mustprogress nounwind uwtable
define linkonce_odr dso_local void @_ZNSt18_Bit_iterator_baseC2EPmj(ptr noundef nonnull align 8 dereferenceable(12) %0, ptr noundef %1, i32 noundef %2) unnamed_addr #4 comdat align 2 {
  %4 = alloca ptr, align 8
  %5 = alloca ptr, align 8
  %6 = alloca i32, align 4
  store ptr %0, ptr %4, align 8
  store ptr %1, ptr %5, align 8
  store i32 %2, ptr %6, align 4
  %7 = load ptr, ptr %4, align 8
  %8 = getelementptr inbounds %"struct.std::_Bit_iterator_base", ptr %7, i32 0, i32 0
  %9 = load ptr, ptr %5, align 8
  store ptr %9, ptr %8, align 8
  %10 = getelementptr inbounds %"struct.std::_Bit_iterator_base", ptr %7, i32 0, i32 1
  %11 = load i32, ptr %6, align 4
  store i32 %11, ptr %10, align 8
  ret void
}

; Function Attrs: mustprogress uwtable
define linkonce_odr dso_local { ptr, i64 } @_ZNKSt13_Bit_iteratordeEv(ptr noundef nonnull align 8 dereferenceable(12) %0) #5 comdat align 2 {
  %2 = alloca %"struct.std::_Bit_reference", align 8
  %3 = alloca ptr, align 8
  store ptr %0, ptr %3, align 8
  %4 = load ptr, ptr %3, align 8
  %5 = getelementptr inbounds %"struct.std::_Bit_iterator_base", ptr %4, i32 0, i32 0
  %6 = load ptr, ptr %5, align 8
  %7 = getelementptr inbounds %"struct.std::_Bit_iterator_base", ptr %4, i32 0, i32 1
  %8 = load i32, ptr %7, align 8
  %9 = zext i32 %8 to i64
  %10 = shl i64 1, %9
  call void @_ZNSt14_Bit_referenceC2EPmm(ptr noundef nonnull align 8 dereferenceable(16) %2, ptr noundef %6, i64 noundef %10)
  %11 = load { ptr, i64 }, ptr %2, align 8
  ret { ptr, i64 } %11
}

; Function Attrs: mustprogress uwtable
define linkonce_odr dso_local { ptr, i32 } @_ZStplRKSt13_Bit_iteratorl(ptr noundef nonnull align 8 dereferenceable(12) %0, i64 noundef %1) #5 comdat {
  %3 = alloca %"struct.std::_Bit_iterator", align 8
  %4 = alloca ptr, align 8
  %5 = alloca i64, align 8
  store ptr %0, ptr %4, align 8
  store i64 %1, ptr %5, align 8
  %6 = load ptr, ptr %4, align 8
  call void @llvm.memcpy.p0.p0.i64(ptr align 8 %3, ptr align 8 %6, i64 16, i1 false)
  %7 = load i64, ptr %5, align 8
  %8 = call noundef nonnull align 8 dereferenceable(12) ptr @_ZNSt13_Bit_iteratorpLEl(ptr noundef nonnull align 8 dereferenceable(12) %3, i64 noundef %7)
  %9 = load { ptr, i32 }, ptr %3, align 8
  ret { ptr, i32 } %9
}

; Function Attrs: mustprogress nounwind uwtable
define linkonce_odr dso_local void @_ZNSt13_Bit_iteratorC2EPmj(ptr noundef nonnull align 8 dereferenceable(12) %0, ptr noundef %1, i32 noundef %2) unnamed_addr #4 comdat align 2 {
  %4 = alloca ptr, align 8
  %5 = alloca ptr, align 8
  %6 = alloca i32, align 4
  store ptr %0, ptr %4, align 8
  store ptr %1, ptr %5, align 8
  store i32 %2, ptr %6, align 4
  %7 = load ptr, ptr %4, align 8
  %8 = load ptr, ptr %5, align 8
  %9 = load i32, ptr %6, align 4
  call void @_ZNSt18_Bit_iterator_baseC2EPmj(ptr noundef nonnull align 8 dereferenceable(12) %7, ptr noundef %8, i32 noundef %9)
  ret void
}

; Function Attrs: mustprogress nounwind uwtable
define linkonce_odr dso_local void @_ZNSt19_Bit_const_iteratorC2EPmj(ptr noundef nonnull align 8 dereferenceable(12) %0, ptr noundef %1, i32 noundef %2) unnamed_addr #4 comdat align 2 {
  %4 = alloca ptr, align 8
  %5 = alloca ptr, align 8
  %6 = alloca i32, align 4
  store ptr %0, ptr %4, align 8
  store ptr %1, ptr %5, align 8
  store i32 %2, ptr %6, align 4
  %7 = load ptr, ptr %4, align 8
  %8 = load ptr, ptr %5, align 8
  %9 = load i32, ptr %6, align 4
  call void @_ZNSt18_Bit_iterator_baseC2EPmj(ptr noundef nonnull align 8 dereferenceable(12) %7, ptr noundef %8, i32 noundef %9)
  ret void
}

; Function Attrs: noreturn nounwind uwtable
define linkonce_odr hidden void @__clang_call_terminate(ptr noundef %0) #7 comdat {
  %2 = call ptr @__cxa_begin_catch(ptr %0) #3
  call void @_ZSt9terminatev() #14
  unreachable
}

; Function Attrs: mustprogress nounwind uwtable
define linkonce_odr dso_local void @_ZNSt19_Bit_const_iteratorC2ERKSt13_Bit_iterator(ptr noundef nonnull align 8 dereferenceable(12) %0, ptr noundef nonnull align 8 dereferenceable(12) %1) unnamed_addr #4 comdat align 2 {
  %3 = alloca ptr, align 8
  %4 = alloca ptr, align 8
  store ptr %0, ptr %3, align 8
  store ptr %1, ptr %4, align 8
  %5 = load ptr, ptr %3, align 8
  %6 = load ptr, ptr %4, align 8
  %7 = getelementptr inbounds %"struct.std::_Bit_iterator_base", ptr %6, i32 0, i32 0
  %8 = load ptr, ptr %7, align 8
  %9 = load ptr, ptr %4, align 8
  %10 = getelementptr inbounds %"struct.std::_Bit_iterator_base", ptr %9, i32 0, i32 1
  %11 = load i32, ptr %10, align 8
  call void @_ZNSt18_Bit_iterator_baseC2EPmj(ptr noundef nonnull align 8 dereferenceable(12) %5, ptr noundef %8, i32 noundef %11)
  ret void
}

; Function Attrs: mustprogress uwtable
define linkonce_odr dso_local { ptr, i64 } @_ZNKSt13_Bit_iteratorixEl(ptr noundef nonnull align 8 dereferenceable(12) %0, i64 noundef %1) #5 comdat align 2 {
  %3 = alloca %"struct.std::_Bit_reference", align 8
  %4 = alloca ptr, align 8
  %5 = alloca i64, align 8
  %6 = alloca %"struct.std::_Bit_iterator", align 8
  store ptr %0, ptr %4, align 8
  store i64 %1, ptr %5, align 8
  %7 = load ptr, ptr %4, align 8
  %8 = load i64, ptr %5, align 8
  %9 = call { ptr, i32 } @_ZStplRKSt13_Bit_iteratorl(ptr noundef nonnull align 8 dereferenceable(12) %7, i64 noundef %8)
  %10 = getelementptr inbounds { ptr, i32 }, ptr %6, i32 0, i32 0
  %11 = extractvalue { ptr, i32 } %9, 0
  store ptr %11, ptr %10, align 8
  %12 = getelementptr inbounds { ptr, i32 }, ptr %6, i32 0, i32 1
  %13 = extractvalue { ptr, i32 } %9, 1
  store i32 %13, ptr %12, align 8
  %14 = call { ptr, i64 } @_ZNKSt13_Bit_iteratordeEv(ptr noundef nonnull align 8 dereferenceable(12) %6)
  %15 = getelementptr inbounds { ptr, i64 }, ptr %3, i32 0, i32 0
  %16 = extractvalue { ptr, i64 } %14, 0
  store ptr %16, ptr %15, align 8
  %17 = getelementptr inbounds { ptr, i64 }, ptr %3, i32 0, i32 1
  %18 = extractvalue { ptr, i64 } %14, 1
  store i64 %18, ptr %17, align 8
  %19 = load { ptr, i64 }, ptr %3, align 8
  ret { ptr, i64 } %19
}

; Function Attrs: mustprogress nounwind uwtable
define linkonce_odr dso_local { ptr, i32 } @_ZNSt6vectorIbSaIbEE5beginEv(ptr noundef nonnull align 8 dereferenceable(40) %0) #4 comdat align 2 personality ptr @__gxx_personality_v0 {
  %2 = alloca %"struct.std::_Bit_iterator", align 8
  %3 = alloca ptr, align 8
  store ptr %0, ptr %3, align 8
  %4 = load ptr, ptr %3, align 8
  %5 = getelementptr inbounds %"struct.std::_Bvector_base", ptr %4, i32 0, i32 0
  %6 = getelementptr inbounds %"struct.std::_Bvector_base<std::allocator<bool>>::_Bvector_impl_data", ptr %5, i32 0, i32 0
  %7 = getelementptr inbounds %"struct.std::_Bit_iterator_base", ptr %6, i32 0, i32 0
  %8 = load ptr, ptr %7, align 8
  invoke void @_ZNSt13_Bit_iteratorC2EPmj(ptr noundef nonnull align 8 dereferenceable(12) %2, ptr noundef %8, i32 noundef 0)
          to label %9 unwind label %11

9:                                                ; preds = %1
  %10 = load { ptr, i32 }, ptr %2, align 8
  ret { ptr, i32 } %10

11:                                               ; preds = %1
  %12 = landingpad { ptr, i32 }
          catch ptr null
  %13 = extractvalue { ptr, i32 } %12, 0
  call void @__clang_call_terminate(ptr %13) #14
  unreachable
}

; Function Attrs: mustprogress nounwind uwtable
define linkonce_odr dso_local noundef i64 @_ZStmiRKSt18_Bit_iterator_baseS1_(ptr noundef nonnull align 8 dereferenceable(12) %0, ptr noundef nonnull align 8 dereferenceable(12) %1) #4 comdat {
  %3 = alloca ptr, align 8
  %4 = alloca ptr, align 8
  store ptr %0, ptr %3, align 8
  store ptr %1, ptr %4, align 8
  %5 = load ptr, ptr %3, align 8
  %6 = getelementptr inbounds %"struct.std::_Bit_iterator_base", ptr %5, i32 0, i32 0
  %7 = load ptr, ptr %6, align 8
  %8 = load ptr, ptr %4, align 8
  %9 = getelementptr inbounds %"struct.std::_Bit_iterator_base", ptr %8, i32 0, i32 0
  %10 = load ptr, ptr %9, align 8
  %11 = ptrtoint ptr %7 to i64
  %12 = ptrtoint ptr %10 to i64
  %13 = sub i64 %11, %12
  %14 = sdiv exact i64 %13, 8
  %15 = mul nsw i64 64, %14
  %16 = load ptr, ptr %3, align 8
  %17 = getelementptr inbounds %"struct.std::_Bit_iterator_base", ptr %16, i32 0, i32 1
  %18 = load i32, ptr %17, align 8
  %19 = zext i32 %18 to i64
  %20 = add nsw i64 %15, %19
  %21 = load ptr, ptr %4, align 8
  %22 = getelementptr inbounds %"struct.std::_Bit_iterator_base", ptr %21, i32 0, i32 1
  %23 = load i32, ptr %22, align 8
  %24 = zext i32 %23 to i64
  %25 = sub nsw i64 %20, %24
  ret i64 %25
}

; Function Attrs: mustprogress nounwind uwtable
define linkonce_odr dso_local { ptr, i32 } @_ZNKSt6vectorIbSaIbEE5beginEv(ptr noundef nonnull align 8 dereferenceable(40) %0) #4 comdat align 2 personality ptr @__gxx_personality_v0 {
  %2 = alloca %"struct.std::_Bit_const_iterator", align 8
  %3 = alloca ptr, align 8
  store ptr %0, ptr %3, align 8
  %4 = load ptr, ptr %3, align 8
  %5 = getelementptr inbounds %"struct.std::_Bvector_base", ptr %4, i32 0, i32 0
  %6 = getelementptr inbounds %"struct.std::_Bvector_base<std::allocator<bool>>::_Bvector_impl_data", ptr %5, i32 0, i32 0
  %7 = getelementptr inbounds %"struct.std::_Bit_iterator_base", ptr %6, i32 0, i32 0
  %8 = load ptr, ptr %7, align 8
  invoke void @_ZNSt19_Bit_const_iteratorC2EPmj(ptr noundef nonnull align 8 dereferenceable(12) %2, ptr noundef %8, i32 noundef 0)
          to label %9 unwind label %11

9:                                                ; preds = %1
  %10 = load { ptr, i32 }, ptr %2, align 8
  ret { ptr, i32 } %10

11:                                               ; preds = %1
  %12 = landingpad { ptr, i32 }
          catch ptr null
  %13 = extractvalue { ptr, i32 } %12, 0
  call void @__clang_call_terminate(ptr %13) #14
  unreachable
}

; Function Attrs: mustprogress nounwind uwtable
define linkonce_odr dso_local { ptr, i32 } @_ZNKSt6vectorIbSaIbEE3endEv(ptr noundef nonnull align 8 dereferenceable(40) %0) #4 comdat align 2 personality ptr @__gxx_personality_v0 {
  %2 = alloca %"struct.std::_Bit_const_iterator", align 8
  %3 = alloca ptr, align 8
  store ptr %0, ptr %3, align 8
  %4 = load ptr, ptr %3, align 8
  %5 = getelementptr inbounds %"struct.std::_Bvector_base", ptr %4, i32 0, i32 0
  %6 = getelementptr inbounds %"struct.std::_Bvector_base<std::allocator<bool>>::_Bvector_impl_data", ptr %5, i32 0, i32 1
  invoke void @_ZNSt19_Bit_const_iteratorC2ERKSt13_Bit_iterator(ptr noundef nonnull align 8 dereferenceable(12) %2, ptr noundef nonnull align 8 dereferenceable(12) %6)
          to label %7 unwind label %9

7:                                                ; preds = %1
  %8 = load { ptr, i32 }, ptr %2, align 8
  ret { ptr, i32 } %8

9:                                                ; preds = %1
  %10 = landingpad { ptr, i32 }
          catch ptr null
  %11 = extractvalue { ptr, i32 } %10, 0
  call void @__clang_call_terminate(ptr %11) #14
  unreachable
}

; Function Attrs: mustprogress nounwind uwtable
define linkonce_odr dso_local noundef nonnull align 8 dereferenceable(16) ptr @_ZNSt14_Bit_referenceaSEb(ptr noundef nonnull align 8 dereferenceable(16) %0, i1 noundef zeroext %1) #4 comdat align 2 {
  %3 = alloca ptr, align 8
  %4 = alloca i8, align 1
  store ptr %0, ptr %3, align 8
  %5 = zext i1 %1 to i8
  store i8 %5, ptr %4, align 1
  %6 = load ptr, ptr %3, align 8
  %7 = load i8, ptr %4, align 1
  %8 = trunc i8 %7 to i1
  br i1 %8, label %9, label %16

9:                                                ; preds = %2
  %10 = getelementptr inbounds %"struct.std::_Bit_reference", ptr %6, i32 0, i32 1
  %11 = load i64, ptr %10, align 8
  %12 = getelementptr inbounds %"struct.std::_Bit_reference", ptr %6, i32 0, i32 0
  %13 = load ptr, ptr %12, align 8
  %14 = load i64, ptr %13, align 8
  %15 = or i64 %14, %11
  store i64 %15, ptr %13, align 8
  br label %24

16:                                               ; preds = %2
  %17 = getelementptr inbounds %"struct.std::_Bit_reference", ptr %6, i32 0, i32 1
  %18 = load i64, ptr %17, align 8
  %19 = xor i64 %18, -1
  %20 = getelementptr inbounds %"struct.std::_Bit_reference", ptr %6, i32 0, i32 0
  %21 = load ptr, ptr %20, align 8
  %22 = load i64, ptr %21, align 8
  %23 = and i64 %22, %19
  store i64 %23, ptr %21, align 8
  br label %24

24:                                               ; preds = %16, %9
  ret ptr %6
}

; Function Attrs: mustprogress uwtable
define linkonce_odr dso_local { ptr, i64 } @_ZNSt6vectorIbSaIbEEixEm(ptr noundef nonnull align 8 dereferenceable(40) %0, i64 noundef %1) #5 comdat align 2 {
  %3 = alloca %"struct.std::_Bit_reference", align 8
  %4 = alloca ptr, align 8
  %5 = alloca i64, align 8
  %6 = alloca %"struct.std::_Bit_iterator", align 8
  store ptr %0, ptr %4, align 8
  store i64 %1, ptr %5, align 8
  %7 = load ptr, ptr %4, align 8
  %8 = call { ptr, i32 } @_ZNSt6vectorIbSaIbEE5beginEv(ptr noundef nonnull align 8 dereferenceable(40) %7) #3
  %9 = getelementptr inbounds { ptr, i32 }, ptr %6, i32 0, i32 0
  %10 = extractvalue { ptr, i32 } %8, 0
  store ptr %10, ptr %9, align 8
  %11 = getelementptr inbounds { ptr, i32 }, ptr %6, i32 0, i32 1
  %12 = extractvalue { ptr, i32 } %8, 1
  store i32 %12, ptr %11, align 8
  %13 = load i64, ptr %5, align 8
  %14 = call { ptr, i64 } @_ZNKSt13_Bit_iteratorixEl(ptr noundef nonnull align 8 dereferenceable(12) %6, i64 noundef %13)
  %15 = getelementptr inbounds { ptr, i64 }, ptr %3, i32 0, i32 0
  %16 = extractvalue { ptr, i64 } %14, 0
  store ptr %16, ptr %15, align 8
  %17 = getelementptr inbounds { ptr, i64 }, ptr %3, i32 0, i32 1
  %18 = extractvalue { ptr, i64 } %14, 1
  store i64 %18, ptr %17, align 8
  %19 = load { ptr, i64 }, ptr %3, align 8
  ret { ptr, i64 } %19
}

; Function Attrs: mustprogress nounwind uwtable
define linkonce_odr dso_local noundef i64 @_ZNKSt6vectorIbSaIbEE4sizeEv(ptr noundef nonnull align 8 dereferenceable(40) %0) #4 comdat align 2 {
  %2 = alloca ptr, align 8
  %3 = alloca %"struct.std::_Bit_const_iterator", align 8
  %4 = alloca %"struct.std::_Bit_const_iterator", align 8
  store ptr %0, ptr %2, align 8
  %5 = load ptr, ptr %2, align 8
  %6 = call { ptr, i32 } @_ZNKSt6vectorIbSaIbEE3endEv(ptr noundef nonnull align 8 dereferenceable(40) %5) #3
  %7 = getelementptr inbounds { ptr, i32 }, ptr %3, i32 0, i32 0
  %8 = extractvalue { ptr, i32 } %6, 0
  store ptr %8, ptr %7, align 8
  %9 = getelementptr inbounds { ptr, i32 }, ptr %3, i32 0, i32 1
  %10 = extractvalue { ptr, i32 } %6, 1
  store i32 %10, ptr %9, align 8
  %11 = call { ptr, i32 } @_ZNKSt6vectorIbSaIbEE5beginEv(ptr noundef nonnull align 8 dereferenceable(40) %5) #3
  %12 = getelementptr inbounds { ptr, i32 }, ptr %4, i32 0, i32 0
  %13 = extractvalue { ptr, i32 } %11, 0
  store ptr %13, ptr %12, align 8
  %14 = getelementptr inbounds { ptr, i32 }, ptr %4, i32 0, i32 1
  %15 = extractvalue { ptr, i32 } %11, 1
  store i32 %15, ptr %14, align 8
  %16 = call noundef i64 @_ZStmiRKSt18_Bit_iterator_baseS1_(ptr noundef nonnull align 8 dereferenceable(12) %3, ptr noundef nonnull align 8 dereferenceable(12) %4)
  ret i64 %16
}

; Function Attrs: mustprogress uwtable
define dso_local void @_ZN12CVQualifiers21make_scalar_volatilesERSt6vectorIbSaIbEE(ptr noundef nonnull align 8 dereferenceable(40) %0) #5 align 2 {
  %2 = alloca ptr, align 8
  %3 = alloca i64, align 8
  %4 = alloca %"struct.std::_Bit_reference", align 8
  store ptr %0, ptr %2, align 8
  %5 = call noundef zeroext i1 @_ZN9CGOptions17volatile_pointersEv()
  br i1 %5, label %6, label %8

6:                                                ; preds = %1
  %7 = call noundef zeroext i1 @_ZN9CGOptions16global_variablesEv()
  br i1 %7, label %27, label %8

8:                                                ; preds = %6, %1
  store i64 1, ptr %3, align 8
  br label %9

9:                                                ; preds = %23, %8
  %10 = load i64, ptr %3, align 8
  %11 = load ptr, ptr %2, align 8
  %12 = call noundef i64 @_ZNKSt6vectorIbSaIbEE4sizeEv(ptr noundef nonnull align 8 dereferenceable(40) %11) #3
  %13 = icmp ult i64 %10, %12
  br i1 %13, label %14, label %26

14:                                               ; preds = %9
  %15 = load ptr, ptr %2, align 8
  %16 = load i64, ptr %3, align 8
  %17 = call { ptr, i64 } @_ZNSt6vectorIbSaIbEEixEm(ptr noundef nonnull align 8 dereferenceable(40) %15, i64 noundef %16)
  %18 = getelementptr inbounds { ptr, i64 }, ptr %4, i32 0, i32 0
  %19 = extractvalue { ptr, i64 } %17, 0
  store ptr %19, ptr %18, align 8
  %20 = getelementptr inbounds { ptr, i64 }, ptr %4, i32 0, i32 1
  %21 = extractvalue { ptr, i64 } %17, 1
  store i64 %21, ptr %20, align 8
  %22 = call noundef nonnull align 8 dereferenceable(16) ptr @_ZNSt14_Bit_referenceaSEb(ptr noundef nonnull align 8 dereferenceable(16) %4, i1 noundef zeroext false) #3
  br label %23

23:                                               ; preds = %14
  %24 = load i64, ptr %3, align 8
  %25 = add i64 %24, 1
  store i64 %25, ptr %3, align 8
  br label %9, !llvm.loop !8

26:                                               ; preds = %9
  br label %27

27:                                               ; preds = %26, %6
  ret void
}