; Function Attrs: mustprogress uwtable
define dso_local void @_ZN12CVQualifiers21make_scalar_volatilesERSt6vectorIbSaIbEE(ptr nocapture noundef nonnull readonly align 8 dereferenceable(40) %0) local_unnamed_addr #4 align 2 personality ptr @__gxx_personality_v0 {
  %2 = tail call noundef zeroext i1 @_ZN9CGOptions17volatile_pointersEv()
  br i1 %2, label %3, label %5

3:                                                ; preds = %1
  %4 = tail call noundef zeroext i1 @_ZN9CGOptions16global_variablesEv()
  br i1 %4, label %.loopexit, label %5

5:                                                ; preds = %3, %1
  %6 = getelementptr inbounds i8, ptr %0, i64 16
  %7 = getelementptr inbounds i8, ptr %0, i64 24
  %8 = load ptr, ptr %6, align 8
  %9 = load i32, ptr %7, align 8
  %10 = load ptr, ptr %0, align 8
  %11 = ptrtoint ptr %8 to i64
  %12 = ptrtoint ptr %10 to i64
  %13 = sub i64 %11, %12
  %14 = shl nsw i64 %13, 3
  %15 = zext i32 %9 to i64
  %16 = add nsw i64 %14, %15
  %17 = icmp ugt i64 %16, 1
  br i1 %17, label %.lr.ph, label %.loopexit

.lr.ph:                                           ; preds = %5, %.lr.ph
  %18 = phi ptr [ %31, %.lr.ph ], [ %10, %5 ]
  %.04 = phi i64 [ %28, %.lr.ph ], [ 1, %5 ]
  %19 = sdiv i64 %.04, 64
  %20 = getelementptr inbounds i64, ptr %18, i64 %19
  %21 = and i64 %.04, -9223372036854775745
  %22 = icmp ugt i64 %21, -9223372036854775808
  %storemerge.idx.i.i.i.i.i = select i1 %22, i64 -8, i64 0
  %storemerge.i.i.i.i.i = getelementptr inbounds i8, ptr %20, i64 %storemerge.idx.i.i.i.i.i
  %23 = and i64 %.04, 63
  %24 = shl nuw i64 1, %23
  %25 = xor i64 %24, -1
  %26 = load i64, ptr %storemerge.i.i.i.i.i, align 8
  %27 = and i64 %26, %25
  store i64 %27, ptr %storemerge.i.i.i.i.i, align 8
  %28 = add nuw i64 %.04, 1
  %29 = load ptr, ptr %6, align 8
  %30 = load i32, ptr %7, align 8
  %31 = load ptr, ptr %0, align 8
  %32 = ptrtoint ptr %29 to i64
  %33 = ptrtoint ptr %31 to i64
  %34 = sub i64 %32, %33
  %35 = shl nsw i64 %34, 3
  %36 = zext i32 %30 to i64
  %37 = add nsw i64 %35, %36
  %38 = icmp ult i64 %28, %37
  br i1 %38, label %.lr.ph, label %.loopexit, !llvm.loop !11

.loopexit:                                        ; preds = %.lr.ph, %5, %3
  ret void
}